target datalayout = "e-m:e-p270:32:32-p271:32:32-p272:64:64-i64:64-i128:128-f80:128-n8:16:32:64-S128"
target triple = "x86_64-pc-linux-gnu"

%struct.prov_siv_ctx_st = type { i32, i8, i64, i64, %struct.siv128_context, ptr, ptr, ptr, ptr }
%struct.siv128_context = type { %union.siv_block_u, %union.siv_block_u, ptr, ptr, ptr, i32, i32 }
%union.siv_block_u = type { [2 x i64] }
%struct.prov_cipher_hw_aes_siv_st = type { ptr, ptr, ptr, ptr, ptr, ptr }

@.str = private unnamed_addr constant [62 x i8] c"../openssl/providers/implementations/ciphers/cipher_aes_siv.c\00", align 1
@__func__.siv_cipher = private unnamed_addr constant [11 x i8] c"siv_cipher\00", align 1

; Function Attrs: nounwind uwtable
define internal i32 @siv_cipher(ptr noundef %0, ptr noundef %1, ptr noundef %2, i64 noundef %3, ptr noundef %4, i64 noundef %5) #0 {
  %7 = alloca i32, align 4
  %8 = alloca ptr, align 8
  %9 = alloca ptr, align 8
  %10 = alloca ptr, align 8
  %11 = alloca i64, align 8
  %12 = alloca ptr, align 8
  %13 = alloca i64, align 8
  %14 = alloca ptr, align 8
  %15 = alloca i32, align 4
  store ptr %0, ptr %8, align 8, !tbaa !3
  store ptr %1, ptr %9, align 8, !tbaa !23
  store ptr %2, ptr %10, align 8, !tbaa !28
  store i64 %3, ptr %11, align 8, !tbaa !25
  store ptr %4, ptr %12, align 8, !tbaa !23
  store i64 %5, ptr %13, align 8, !tbaa !25
  call void @llvm.lifetime.start.p0(i64 8, ptr %14) #4
  %16 = load ptr, ptr %8, align 8, !tbaa !3
  store ptr %16, ptr %14, align 8, !tbaa !7
  %17 = call i32 @ossl_prov_is_running()
  %18 = icmp ne i32 %17, 0
  br i1 %18, label %20, label %19

19:                                               ; preds = %6
  store i32 0, ptr %7, align 4
  store i32 1, ptr %15, align 4
  br label %58

20:                                               ; preds = %6
  %21 = load ptr, ptr %9, align 8, !tbaa !23
  %22 = icmp ne ptr %21, null
  br i1 %22, label %23, label %38

23:                                               ; preds = %20
  %24 = load i64, ptr %13, align 8, !tbaa !25
  %25 = icmp eq i64 %24, 0
  br i1 %25, label %26, label %32

26:                                               ; preds = %23
  %27 = load ptr, ptr %10, align 8, !tbaa !28
  %28 = icmp ne ptr %27, null
  br i1 %28, label %29, label %31

29:                                               ; preds = %26
  %30 = load ptr, ptr %10, align 8, !tbaa !28
  store i64 0, ptr %30, align 8, !tbaa !25
  br label %31

31:                                               ; preds = %29, %26
  store i32 1, ptr %7, align 4
  store i32 1, ptr %15, align 4
  br label %58

32:                                               ; preds = %23
  %33 = load i64, ptr %11, align 8, !tbaa !25
  %34 = load i64, ptr %13, align 8, !tbaa !25
  %35 = icmp ult i64 %33, %34
  br i1 %35, label %36, label %37

36:                                               ; preds = %32
  call void @ERR_new()
  call void @ERR_set_debug(ptr noundef @.str, i32 noundef 130, ptr noundef @__func__.siv_cipher)
  call void (i32, i32, ptr, ...) @ERR_set_error(i32 noundef 57, i32 noundef 106, ptr noundef null)
  store i32 0, ptr %7, align 4
  store i32 1, ptr %15, align 4
  br label %58

37:                                               ; preds = %32
  br label %38

38:                                               ; preds = %37, %20
  %39 = load ptr, ptr %14, align 8, !tbaa !7
  %40 = getelementptr inbounds nuw %struct.prov_siv_ctx_st, ptr %39, i32 0, i32 7
  %41 = load ptr, ptr %40, align 8, !tbaa !9
  %42 = getelementptr inbounds nuw %struct.prov_cipher_hw_aes_siv_st, ptr %41, i32 0, i32 1
  %43 = load ptr, ptr %42, align 8, !tbaa !30
  %44 = load ptr, ptr %14, align 8, !tbaa !7
  %45 = load ptr, ptr %9, align 8, !tbaa !23
  %46 = load ptr, ptr %12, align 8, !tbaa !23
  %47 = load i64, ptr %13, align 8, !tbaa !25
  %48 = call i32 %43(ptr noundef %44, ptr noundef %45, ptr noundef %46, i64 noundef %47)
  %49 = icmp sle i32 %48, 0
  br i1 %49, label %50, label %51

50:                                               ; preds = %38
  store i32 0, ptr %7, align 4
  store i32 1, ptr %15, align 4
  br label %58

51:                                               ; preds = %38
  %52 = load ptr, ptr %10, align 8, !tbaa !28
  %53 = icmp ne ptr %52, null
  br i1 %53, label %54, label %57

54:                                               ; preds = %51
  %55 = load i64, ptr %13, align 8, !tbaa !25
  %56 = load ptr, ptr %10, align 8, !tbaa !28
  store i64 %55, ptr %56, align 8, !tbaa !25
  br label %57

57:                                               ; preds = %54, %51
  store i32 1, ptr %7, align 4
  store i32 1, ptr %15, align 4
  br label %58

58:                                               ; preds = %57, %50, %36, %31, %19
  call void @llvm.lifetime.end.p0(i64 8, ptr %14) #4
  %59 = load i32, ptr %7, align 4
  ret i32 %59
}