; Function Attrs: nounwind uwtable
define internal range(i32 0, 2) i32 @siv_cipher(ptr noundef %0, ptr noundef %1, ptr noundef writeonly captures(address_is_null) %2, i64 noundef %3, ptr noundef %4, i64 noundef %5) #0 {
  %7 = tail call i32 @ossl_prov_is_running() #4
  %.not = icmp eq i32 %7, 0
  br i1 %.not, label %25, label %8

8:                                                ; preds = %6
  %.not17 = icmp eq ptr %1, null
  br i1 %.not17, label %16, label %9

9:                                                ; preds = %8
  %10 = icmp eq i64 %5, 0
  br i1 %10, label %11, label %13

11:                                               ; preds = %9
  %.not19 = icmp eq ptr %2, null
  br i1 %.not19, label %25, label %12

12:                                               ; preds = %11
  store i64 0, ptr %2, align 8, !tbaa !25
  br label %25

13:                                               ; preds = %9
  %14 = icmp ult i64 %3, %5
  br i1 %14, label %15, label %16

15:                                               ; preds = %13
  tail call void @ERR_new() #4
  tail call void @ERR_set_debug(ptr noundef nonnull @.str, i32 noundef 130, ptr noundef nonnull @__func__.siv_cipher) #4
  tail call void (i32, i32, ptr, ...) @ERR_set_error(i32 noundef 57, i32 noundef 106, ptr noundef null) #4
  br label %25

16:                                               ; preds = %13, %8
  %17 = getelementptr inbounds nuw i8, ptr %0, i64 104
  %18 = load ptr, ptr %17, align 8, !tbaa !19
  %19 = getelementptr inbounds nuw i8, ptr %18, i64 8
  %20 = load ptr, ptr %19, align 8, !tbaa !26
  %21 = tail call i32 %20(ptr noundef %0, ptr noundef %1, ptr noundef %4, i64 noundef %5) #4
  %22 = icmp slt i32 %21, 1
  br i1 %22, label %25, label %23

23:                                               ; preds = %16
  %.not18 = icmp eq ptr %2, null
  br i1 %.not18, label %25, label %24

24:                                               ; preds = %23
  store i64 %5, ptr %2, align 8, !tbaa !25
  br label %25

25:                                               ; preds = %23, %24, %16, %11, %12, %6, %15
  %.0 = phi i32 [ 0, %15 ], [ 0, %6 ], [ 1, %12 ], [ 1, %11 ], [ 0, %16 ], [ 1, %24 ], [ 1, %23 ]
  ret i32 %.0
}